target datalayout = "e-m:e-p270:32:32-p271:32:32-p272:64:64-i64:64-i128:128-f80:128-n8:16:32:64-S128"
target triple = "x86_64-pc-linux-gnu"

%struct.Agobj_s = type { %struct.Agtag_s, ptr }
%struct.Agtag_s = type { i32, i64 }
%struct.Agraphinfo_t = type { %struct.Agrec_s, ptr, ptr, %struct.boxf, [4 x %struct.pointf_s], i8, i8, i8, i8, i32, double, double, i16, ptr, ptr, ptr, ptr, i32, ptr, ptr, ptr, ptr, i16, i16, i32, ptr, ptr, ptr, ptr, ptr, i32, ptr, ptr, %struct.nlist_t, ptr, ptr, i32, i32, i8, i8, i32, i32, i32, ptr, ptr, ptr, ptr, i8, i8, i8, i8, i8 }
%struct.Agrec_s = type { ptr, ptr }
%struct.boxf = type { %struct.pointf_s, %struct.pointf_s }
%struct.pointf_s = type { double, double }
%struct.nlist_t = type { ptr, i64 }
%struct.textlabel_t = type { ptr, ptr, ptr, i32, double, %struct.pointf_s, %struct.pointf_s, %struct.pointf_s, %union.anon.0, i8, i8, i8 }
%union.anon.0 = type { %struct.anon }
%struct.anon = type { ptr, i64 }

@.str.22 = private unnamed_addr constant [8 x i8] c"%lf,%lf\00", align 1

; Function Attrs: nounwind uwtable
define internal void @nop_init_graphs(ptr noundef %0, ptr noundef %1, ptr noundef %2) #0 {
  %4 = alloca ptr, align 8
  %5 = alloca ptr, align 8
  %6 = alloca ptr, align 8
  %7 = alloca ptr, align 8
  %8 = alloca ptr, align 8
  %9 = alloca double, align 8
  %10 = alloca double, align 8
  %11 = alloca %struct.pointf_s, align 8
  %12 = alloca i32, align 4
  store ptr %0, ptr %4, align 8, !tbaa !57
  store ptr %1, ptr %5, align 8, !tbaa !45
  store ptr %2, ptr %6, align 8, !tbaa !45
  call void @llvm.lifetime.start.p0(i64 8, ptr %7) #15
  call void @llvm.lifetime.start.p0(i64 8, ptr %8) #15
  call void @llvm.lifetime.start.p0(i64 8, ptr %9) #15
  call void @llvm.lifetime.start.p0(i64 8, ptr %10) #15
  %13 = load ptr, ptr %4, align 8, !tbaa !57
  %14 = getelementptr inbounds nuw %struct.Agobj_s, ptr %13, i32 0, i32 1
  %15 = load ptr, ptr %14, align 8, !tbaa !8
  %16 = getelementptr inbounds nuw %struct.Agraphinfo_t, ptr %15, i32 0, i32 2
  %17 = load ptr, ptr %16, align 8, !tbaa !70
  %18 = icmp ne ptr %17, null
  br i1 %18, label %19, label %47

19:                                               ; preds = %3
  %20 = load ptr, ptr %5, align 8, !tbaa !45
  %21 = icmp ne ptr %20, null
  br i1 %21, label %22, label %47

22:                                               ; preds = %19
  %23 = load ptr, ptr %4, align 8, !tbaa !57
  %24 = load ptr, ptr %5, align 8, !tbaa !45
  %25 = call ptr @agxget(ptr noundef %23, ptr noundef %24)
  store ptr %25, ptr %8, align 8, !tbaa !49
  %26 = load ptr, ptr %8, align 8, !tbaa !49
  %27 = call i32 (ptr, ptr, ...) @__isoc99_sscanf(ptr noundef %26, ptr noundef @.str.22, ptr noundef %9, ptr noundef %10) #15
  %28 = icmp eq i32 %27, 2
  br i1 %28, label %29, label %46

29:                                               ; preds = %22
  %30 = load ptr, ptr %4, align 8, !tbaa !57
  %31 = getelementptr inbounds nuw %struct.Agobj_s, ptr %30, i32 0, i32 1
  %32 = load ptr, ptr %31, align 8, !tbaa !8
  %33 = getelementptr inbounds nuw %struct.Agraphinfo_t, ptr %32, i32 0, i32 2
  %34 = load ptr, ptr %33, align 8, !tbaa !70
  %35 = getelementptr inbounds nuw %struct.textlabel_t, ptr %34, i32 0, i32 7
  %36 = getelementptr inbounds nuw %struct.pointf_s, ptr %11, i32 0, i32 0
  %37 = load double, ptr %9, align 8, !tbaa !53
  store double %37, ptr %36, align 8, !tbaa !82
  %38 = getelementptr inbounds nuw %struct.pointf_s, ptr %11, i32 0, i32 1
  %39 = load double, ptr %10, align 8, !tbaa !53
  store double %39, ptr %38, align 8, !tbaa !83
  call void @llvm.memcpy.p0.p0.i64(ptr align 8 %35, ptr align 8 %11, i64 16, i1 false), !tbaa.struct !84
  %40 = load ptr, ptr %4, align 8, !tbaa !57
  %41 = getelementptr inbounds nuw %struct.Agobj_s, ptr %40, i32 0, i32 1
  %42 = load ptr, ptr %41, align 8, !tbaa !8
  %43 = getelementptr inbounds nuw %struct.Agraphinfo_t, ptr %42, i32 0, i32 2
  %44 = load ptr, ptr %43, align 8, !tbaa !70
  %45 = getelementptr inbounds nuw %struct.textlabel_t, ptr %44, i32 0, i32 10
  store i8 1, ptr %45, align 1, !tbaa !71
  br label %46

46:                                               ; preds = %29, %22
  br label %47

47:                                               ; preds = %46, %19, %3
  %48 = load ptr, ptr %6, align 8, !tbaa !45
  %49 = icmp ne ptr %48, null
  br i1 %49, label %51, label %50

50:                                               ; preds = %47
  store i32 1, ptr %12, align 4
  br label %66

51:                                               ; preds = %47
  %52 = load ptr, ptr %4, align 8, !tbaa !57
  %53 = call ptr @agfstsubg(ptr noundef %52)
  store ptr %53, ptr %7, align 8, !tbaa !57
  br label %54

54:                                               ; preds = %62, %51
  %55 = load ptr, ptr %7, align 8, !tbaa !57
  %56 = icmp ne ptr %55, null
  br i1 %56, label %57, label %65

57:                                               ; preds = %54
  %58 = load ptr, ptr %7, align 8, !tbaa !57
  %59 = load ptr, ptr %4, align 8, !tbaa !57
  %60 = load ptr, ptr %5, align 8, !tbaa !45
  %61 = load ptr, ptr %6, align 8, !tbaa !45
  call void @dfs(ptr noundef %58, ptr noundef %59, ptr noundef %60, ptr noundef %61)
  br label %62

62:                                               ; preds = %57
  %63 = load ptr, ptr %7, align 8, !tbaa !57
  %64 = call ptr @agnxtsubg(ptr noundef %63)
  store ptr %64, ptr %7, align 8, !tbaa !57
  br label %54, !llvm.loop !85

65:                                               ; preds = %54
  store i32 0, ptr %12, align 4
  br label %66

66:                                               ; preds = %65, %50
  call void @llvm.lifetime.end.p0(i64 8, ptr %10) #15
  call void @llvm.lifetime.end.p0(i64 8, ptr %9) #15
  call void @llvm.lifetime.end.p0(i64 8, ptr %8) #15
  call void @llvm.lifetime.end.p0(i64 8, ptr %7) #15
  %67 = load i32, ptr %12, align 4
  switch i32 %67, label %69 [
    i32 0, label %68
    i32 1, label %68
  ]

68:                                               ; preds = %66, %66
  ret void

69:                                               ; preds = %66
  unreachable
}