; Function Attrs: nounwind uwtable
define internal fastcc void @nop_init_graphs(ptr noundef %0, ptr noundef %1, ptr noundef %2) unnamed_addr #0 {
  %4 = alloca double, align 8
  %5 = alloca double, align 8
  call void @llvm.lifetime.start.p0(i64 8, ptr nonnull %4) #22
  call void @llvm.lifetime.start.p0(i64 8, ptr nonnull %5) #22
  %6 = getelementptr inbounds nuw i8, ptr %0, i64 16
  %7 = load ptr, ptr %6, align 8, !tbaa !3
  %8 = getelementptr inbounds nuw i8, ptr %7, i64 24
  %9 = load ptr, ptr %8, align 8, !tbaa !93
  %10 = icmp ne ptr %9, null
  %11 = icmp ne ptr %1, null
  %or.cond = and i1 %11, %10
  br i1 %or.cond, label %12, label %24

12:                                               ; preds = %3
  %13 = tail call ptr @agxget(ptr noundef nonnull %0, ptr noundef nonnull %1) #22
  %14 = call i32 (ptr, ptr, ...) @__isoc99_sscanf(ptr noundef %13, ptr noundef nonnull @.str.22, ptr noundef nonnull %4, ptr noundef nonnull %5) #22
  %15 = icmp eq i32 %14, 2
  br i1 %15, label %16, label %24

16:                                               ; preds = %12
  %17 = load ptr, ptr %6, align 8, !tbaa !3
  %18 = getelementptr inbounds nuw i8, ptr %17, i64 24
  %19 = load ptr, ptr %18, align 8, !tbaa !93
  %20 = getelementptr inbounds nuw i8, ptr %19, i64 72
  %21 = load double, ptr %4, align 8, !tbaa !45
  %22 = load double, ptr %5, align 8, !tbaa !45
  store double %21, ptr %20, align 8, !tbaa !45
  %.sroa.2.0..sroa_idx = getelementptr inbounds nuw i8, ptr %19, i64 80
  store double %22, ptr %.sroa.2.0..sroa_idx, align 8, !tbaa !45
  %23 = getelementptr inbounds nuw i8, ptr %19, i64 105
  store i8 1, ptr %23, align 1, !tbaa !58
  br label %24

24:                                               ; preds = %12, %16, %3
  %.not = icmp eq ptr %2, null
  br i1 %.not, label %.loopexit, label %25

25:                                               ; preds = %24
  %26 = call ptr @agfstsubg(ptr noundef nonnull %0) #22
  %.not1819 = icmp eq ptr %26, null
  br i1 %.not1819, label %.loopexit, label %.lr.ph

.lr.ph:                                           ; preds = %25, %.lr.ph
  %.020 = phi ptr [ %27, %.lr.ph ], [ %26, %25 ]
  call fastcc void @dfs(ptr noundef %.020, ptr noundef nonnull %0, ptr noundef %1, ptr noundef %2)
  %27 = call ptr @agnxtsubg(ptr noundef nonnull %.020) #22
  %.not18 = icmp eq ptr %27, null
  br i1 %.not18, label %.loopexit, label %.lr.ph, !llvm.loop !103

.loopexit:                                        ; preds = %.lr.ph, %25, %24
  call void @llvm.lifetime.end.p0(i64 8, ptr nonnull %5) #22
  call void @llvm.lifetime.end.p0(i64 8, ptr nonnull %4) #22
  ret void
}